target datalayout = "e-m:e-p270:32:32-p271:32:32-p272:64:64-i64:64-i128:128-f80:128-n8:16:32:64-S128"
target triple = "x86_64-pc-linux-gnu"

%struct.xorkey_st = type { [32 x i8], [32 x i8], i32, i32, ptr, %struct.CRYPTO_REF_COUNT }
%struct.CRYPTO_REF_COUNT = type { i32 }

@.str.2 = private unnamed_addr constant [31 x i8] c"../openssl/test/tls-provider.c\00", align 1
@X509_PUBKEY_INTERNAL_it.local_it = internal constant { i8, [7 x i8], i64, ptr, i64, ptr, i64, ptr } { i8 1, [7 x i8] zeroinitializer, i64 16, ptr @X509_PUBKEY_INTERNAL_seq_tt, i64 2, ptr null, i64 40, ptr @.str.60 }, align 8

; Function Attrs: inlinehint nounwind uwtable
define internal void @CRYPTO_FREE_REF(ptr noundef %0) #3 {
  %2 = alloca ptr, align 8
  store ptr %0, ptr %2, align 8, !tbaa !13
  ret void
}

; Function Attrs: inlinehint nounwind uwtable
define internal i32 @CRYPTO_DOWN_REF(ptr noundef %0, ptr noundef %1) #3 {
  %3 = alloca ptr, align 8
  %4 = alloca ptr, align 8
  %5 = alloca i32, align 4
  %6 = alloca i32, align 4
  store ptr %0, ptr %3, align 8, !tbaa !13
  store ptr %1, ptr %4, align 8, !tbaa !33
  %7 = load ptr, ptr %3, align 8, !tbaa !13
  %8 = getelementptr inbounds nuw %struct.CRYPTO_REF_COUNT, ptr %7, i32 0, i32 0
  store i32 1, ptr %5, align 4, !tbaa !27
  %9 = load i32, ptr %5, align 4
  %10 = atomicrmw sub ptr %8, i32 %9 release, align 4
  store i32 %10, ptr %6, align 4
  %11 = load i32, ptr %6, align 4, !tbaa !27
  %12 = sub nsw i32 %11, 1
  %13 = load ptr, ptr %4, align 8, !tbaa !33
  store i32 %12, ptr %13, align 4, !tbaa !27
  %14 = load ptr, ptr %4, align 8, !tbaa !33
  %15 = load i32, ptr %14, align 4, !tbaa !27
  %16 = icmp eq i32 %15, 0
  br i1 %16, label %17, label %18

17:                                               ; preds = %2
  fence acquire
  br label %18

18:                                               ; preds = %17, %2
  ret i32 1
}

; Function Attrs: nounwind uwtable
define internal ptr @X509_PUBKEY_INTERNAL_it() #0 {
  ret ptr @X509_PUBKEY_INTERNAL_it.local_it
}

; Function Attrs: nounwind uwtable
define internal void @xor_freekey(ptr noundef %0) #0 {
  %2 = alloca ptr, align 8
  %3 = alloca ptr, align 8
  %4 = alloca i32, align 4
  %5 = alloca i32, align 4
  store ptr %0, ptr %2, align 8, !tbaa !13
  call void @llvm.lifetime.start.p0(i64 8, ptr %3) #8
  %6 = load ptr, ptr %2, align 8, !tbaa !13
  store ptr %6, ptr %3, align 8, !tbaa !41
  call void @llvm.lifetime.start.p0(i64 4, ptr %4) #8
  %7 = load ptr, ptr %3, align 8, !tbaa !41
  %8 = icmp eq ptr %7, null
  br i1 %8, label %9, label %10

9:                                                ; preds = %1
  store i32 1, ptr %5, align 4
  br label %33

10:                                               ; preds = %1
  %11 = load ptr, ptr %3, align 8, !tbaa !41
  %12 = getelementptr inbounds nuw %struct.xorkey_st, ptr %11, i32 0, i32 5
  %13 = call i32 @CRYPTO_DOWN_REF(ptr noundef %12, ptr noundef %4)
  %14 = icmp sle i32 %13, 0
  br i1 %14, label %15, label %16

15:                                               ; preds = %10
  store i32 1, ptr %5, align 4
  br label %33

16:                                               ; preds = %10
  %17 = load i32, ptr %4, align 4, !tbaa !27
  %18 = icmp sgt i32 %17, 0
  br i1 %18, label %19, label %20

19:                                               ; preds = %16
  store i32 1, ptr %5, align 4
  br label %33

20:                                               ; preds = %16
  %21 = load ptr, ptr %3, align 8, !tbaa !41
  %22 = icmp ne ptr %21, null
  br i1 %22, label %23, label %29

23:                                               ; preds = %20
  %24 = load ptr, ptr %3, align 8, !tbaa !41
  %25 = getelementptr inbounds nuw %struct.xorkey_st, ptr %24, i32 0, i32 4
  %26 = load ptr, ptr %25, align 8, !tbaa !59
  call void @CRYPTO_free(ptr noundef %26, ptr noundef @.str.2, i32 noundef 720)
  %27 = load ptr, ptr %3, align 8, !tbaa !41
  %28 = getelementptr inbounds nuw %struct.xorkey_st, ptr %27, i32 0, i32 4
  store ptr null, ptr %28, align 8, !tbaa !59
  br label %29

29:                                               ; preds = %23, %20
  %30 = load ptr, ptr %3, align 8, !tbaa !41
  %31 = getelementptr inbounds nuw %struct.xorkey_st, ptr %30, i32 0, i32 5
  call void @CRYPTO_FREE_REF(ptr noundef %31)
  %32 = load ptr, ptr %3, align 8, !tbaa !41
  call void @CRYPTO_free(ptr noundef %32, ptr noundef @.str.2, i32 noundef 724)
  store i32 0, ptr %5, align 4
  br label %33

33:                                               ; preds = %29, %19, %15, %9
  call void @llvm.lifetime.end.p0(i64 4, ptr %4) #8
  call void @llvm.lifetime.end.p0(i64 8, ptr %3) #8
  %34 = load i32, ptr %5, align 4
  switch i32 %34, label %36 [
    i32 0, label %35
    i32 1, label %35
  ]

35:                                               ; preds = %33, %33
  ret void

36:                                               ; preds = %33
  unreachable
}

; Function Attrs: nounwind uwtable
define internal ptr @xor_key_from_x509pubkey(ptr noundef %0, ptr noundef %1, ptr noundef %2) #0 {
  %4 = alloca ptr, align 8
  %5 = alloca ptr, align 8
  %6 = alloca ptr, align 8
  %7 = alloca ptr, align 8
  %8 = alloca ptr, align 8
  %9 = alloca i32, align 4
  %10 = alloca ptr, align 8
  %11 = alloca i32, align 4
  store ptr %0, ptr %5, align 8, !tbaa !101
  store ptr %1, ptr %6, align 8, !tbaa !14
  store ptr %2, ptr %7, align 8, !tbaa !30
  call void @llvm.lifetime.start.p0(i64 8, ptr %8) #8
  call void @llvm.lifetime.start.p0(i64 4, ptr %9) #8
  call void @llvm.lifetime.start.p0(i64 8, ptr %10) #8
  %12 = load ptr, ptr %5, align 8, !tbaa !101
  %13 = icmp ne ptr %12, null
  br i1 %13, label %14, label %18

14:                                               ; preds = %3
  %15 = load ptr, ptr %5, align 8, !tbaa !101
  %16 = call i32 @X509_PUBKEY_get0_param(ptr noundef null, ptr noundef %8, ptr noundef %9, ptr noundef %10, ptr noundef %15)
  %17 = icmp ne i32 %16, 0
  br i1 %17, label %19, label %18

18:                                               ; preds = %14, %3
  store ptr null, ptr %4, align 8
  store i32 1, ptr %11, align 4
  br label %26

19:                                               ; preds = %14
  %20 = load ptr, ptr %10, align 8, !tbaa !124
  %21 = load ptr, ptr %8, align 8, !tbaa !30
  %22 = load i32, ptr %9, align 4, !tbaa !27
  %23 = load ptr, ptr %6, align 8, !tbaa !14
  %24 = load ptr, ptr %7, align 8, !tbaa !30
  %25 = call ptr @xor_key_op(ptr noundef %20, ptr noundef %21, i32 noundef %22, i32 noundef 0, ptr noundef %23, ptr noundef %24)
  store ptr %25, ptr %4, align 8
  store i32 1, ptr %11, align 4
  br label %26

26:                                               ; preds = %19, %18
  call void @llvm.lifetime.end.p0(i64 8, ptr %10) #8
  call void @llvm.lifetime.end.p0(i64 4, ptr %9) #8
  call void @llvm.lifetime.end.p0(i64 8, ptr %8) #8
  %27 = load ptr, ptr %4, align 8
  ret ptr %27
}

; Function Attrs: nounwind uwtable
define internal ptr @xorx_d2i_X509_PUBKEY_INTERNAL(ptr noundef %0, i64 noundef %1, ptr noundef %2) #0 {
  %4 = alloca ptr, align 8
  %5 = alloca ptr, align 8
  %6 = alloca i64, align 8
  %7 = alloca ptr, align 8
  %8 = alloca ptr, align 8
  %9 = alloca i32, align 4
  store ptr %0, ptr %5, align 8, !tbaa !93
  store i64 %1, ptr %6, align 8, !tbaa !35
  store ptr %2, ptr %7, align 8, !tbaa !14
  call void @llvm.lifetime.start.p0(i64 8, ptr %8) #8
  %10 = call noalias ptr @CRYPTO_zalloc(i64 noundef 40, ptr noundef @.str.2, i32 noundef 2183)
  store ptr %10, ptr %8, align 8, !tbaa !101
  %11 = load ptr, ptr %8, align 8, !tbaa !101
  %12 = icmp eq ptr %11, null
  br i1 %12, label %13, label %14

13:                                               ; preds = %3
  store ptr null, ptr %4, align 8
  store i32 1, ptr %9, align 4
  br label %20

14:                                               ; preds = %3
  %15 = load ptr, ptr %5, align 8, !tbaa !93
  %16 = load i64, ptr %6, align 8, !tbaa !35
  %17 = call ptr @X509_PUBKEY_INTERNAL_it()
  %18 = load ptr, ptr %7, align 8, !tbaa !14
  %19 = call ptr @ASN1_item_d2i_ex(ptr noundef %8, ptr noundef %15, i64 noundef %16, ptr noundef %17, ptr noundef %18, ptr noundef null)
  store ptr %19, ptr %4, align 8
  store i32 1, ptr %9, align 4
  br label %20

20:                                               ; preds = %14, %13
  call void @llvm.lifetime.end.p0(i64 8, ptr %8) #8
  %21 = load ptr, ptr %4, align 8
  ret ptr %21
}

; Function Attrs: nounwind uwtable
define internal ptr @xor_d2i_PUBKEY(ptr noundef %0, ptr noundef %1, i64 noundef %2) #0 {
  %4 = alloca ptr, align 8
  %5 = alloca ptr, align 8
  %6 = alloca i64, align 8
  %7 = alloca ptr, align 8
  %8 = alloca ptr, align 8
  store ptr %0, ptr %4, align 8, !tbaa !138
  store ptr %1, ptr %5, align 8, !tbaa !93
  store i64 %2, ptr %6, align 8, !tbaa !35
  call void @llvm.lifetime.start.p0(i64 8, ptr %7) #8
  store ptr null, ptr %7, align 8, !tbaa !41
  call void @llvm.lifetime.start.p0(i64 8, ptr %8) #8
  %9 = load ptr, ptr %5, align 8, !tbaa !93
  %10 = load i64, ptr %6, align 8, !tbaa !35
  %11 = call ptr @xorx_d2i_X509_PUBKEY_INTERNAL(ptr noundef %9, i64 noundef %10, ptr noundef null)
  store ptr %11, ptr %8, align 8, !tbaa !101
  %12 = load ptr, ptr %8, align 8, !tbaa !101
  %13 = call ptr @xor_key_from_x509pubkey(ptr noundef %12, ptr noundef null, ptr noundef null)
  store ptr %13, ptr %7, align 8, !tbaa !41
  %14 = load ptr, ptr %7, align 8, !tbaa !41
  %15 = icmp eq ptr %14, null
  br i1 %15, label %16, label %17

16:                                               ; preds = %3
  br label %26

17:                                               ; preds = %3
  %18 = load ptr, ptr %4, align 8, !tbaa !138
  %19 = icmp ne ptr %18, null
  br i1 %19, label %20, label %25

20:                                               ; preds = %17
  %21 = load ptr, ptr %4, align 8, !tbaa !138
  %22 = load ptr, ptr %21, align 8, !tbaa !41
  call void @xor_freekey(ptr noundef %22)
  %23 = load ptr, ptr %7, align 8, !tbaa !41
  %24 = load ptr, ptr %4, align 8, !tbaa !138
  store ptr %23, ptr %24, align 8, !tbaa !41
  br label %25

25:                                               ; preds = %20, %17
  br label %26

26:                                               ; preds = %25, %16
  %27 = load ptr, ptr %8, align 8, !tbaa !101
  call void @X509_PUBKEY_free(ptr noundef %27)
  %28 = load ptr, ptr %7, align 8, !tbaa !41
  call void @llvm.lifetime.end.p0(i64 8, ptr %8) #8
  call void @llvm.lifetime.end.p0(i64 8, ptr %7) #8
  ret ptr %28
}