; Function Attrs: nounwind uwtable
define internal ptr @xor_d2i_PUBKEY(ptr noundef captures(address_is_null) %0, ptr noundef %1, i64 noundef %2) #0 {
  %4 = alloca ptr, align 8
  %5 = alloca i32, align 4
  %6 = alloca ptr, align 8
  %7 = alloca ptr, align 8
  call void @llvm.lifetime.start.p0(i64 8, ptr nonnull %7) #16
  %8 = tail call noalias ptr @CRYPTO_zalloc(i64 noundef 40, ptr noundef nonnull @.str.2, i32 noundef 2183) #16
  store ptr %8, ptr %7, align 8, !tbaa !104
  %9 = icmp eq ptr %8, null
  br i1 %9, label %xorx_d2i_X509_PUBKEY_INTERNAL.exit.thread, label %xorx_d2i_X509_PUBKEY_INTERNAL.exit

xorx_d2i_X509_PUBKEY_INTERNAL.exit.thread:        ; preds = %3
  call void @llvm.lifetime.end.p0(i64 8, ptr nonnull %7) #16
  call void @llvm.lifetime.start.p0(i64 8, ptr nonnull %4) #16
  call void @llvm.lifetime.start.p0(i64 4, ptr nonnull %5) #16
  call void @llvm.lifetime.start.p0(i64 8, ptr nonnull %6) #16
  br label %xor_key_from_x509pubkey.exit.thread

xorx_d2i_X509_PUBKEY_INTERNAL.exit:               ; preds = %3
  %10 = call ptr @ASN1_item_d2i_ex(ptr noundef nonnull %7, ptr noundef %1, i64 noundef %2, ptr noundef nonnull @X509_PUBKEY_INTERNAL_it.local_it, ptr noundef null, ptr noundef null) #16
  call void @llvm.lifetime.end.p0(i64 8, ptr nonnull %7) #16
  call void @llvm.lifetime.start.p0(i64 8, ptr nonnull %4) #16
  call void @llvm.lifetime.start.p0(i64 4, ptr nonnull %5) #16
  call void @llvm.lifetime.start.p0(i64 8, ptr nonnull %6) #16
  %.not.i = icmp eq ptr %10, null
  br i1 %.not.i, label %xor_key_from_x509pubkey.exit.thread, label %11

11:                                               ; preds = %xorx_d2i_X509_PUBKEY_INTERNAL.exit
  %12 = call i32 @X509_PUBKEY_get0_param(ptr noundef null, ptr noundef nonnull %4, ptr noundef nonnull %5, ptr noundef nonnull %6, ptr noundef nonnull %10) #16
  %.not6.i = icmp eq i32 %12, 0
  br i1 %.not6.i, label %xor_key_from_x509pubkey.exit.thread, label %xor_key_from_x509pubkey.exit

xor_key_from_x509pubkey.exit.thread:              ; preds = %11, %xorx_d2i_X509_PUBKEY_INTERNAL.exit, %xorx_d2i_X509_PUBKEY_INTERNAL.exit.thread
  %.0.i14.ph = phi ptr [ null, %xorx_d2i_X509_PUBKEY_INTERNAL.exit.thread ], [ null, %xorx_d2i_X509_PUBKEY_INTERNAL.exit ], [ %10, %11 ]
  call void @llvm.lifetime.end.p0(i64 8, ptr nonnull %6) #16
  call void @llvm.lifetime.end.p0(i64 4, ptr nonnull %5) #16
  call void @llvm.lifetime.end.p0(i64 8, ptr nonnull %4) #16
  br label %30

xor_key_from_x509pubkey.exit:                     ; preds = %11
  %13 = load ptr, ptr %6, align 8, !tbaa !98
  %14 = load ptr, ptr %4, align 8, !tbaa !25
  %15 = load i32, ptr %5, align 4, !tbaa !11
  %16 = call fastcc ptr @xor_key_op(ptr noundef %13, ptr noundef %14, i32 noundef %15, i32 noundef 0)
  call void @llvm.lifetime.end.p0(i64 8, ptr nonnull %6) #16
  call void @llvm.lifetime.end.p0(i64 4, ptr nonnull %5) #16
  call void @llvm.lifetime.end.p0(i64 8, ptr nonnull %4) #16
  %17 = icmp ne ptr %16, null
  %18 = icmp ne ptr %0, null
  %or.cond = and i1 %18, %17
  br i1 %or.cond, label %19, label %30

19:                                               ; preds = %xor_key_from_x509pubkey.exit
  %20 = load ptr, ptr %0, align 8, !tbaa !49
  %21 = icmp eq ptr %20, null
  br i1 %21, label %xor_freekey.exit, label %22

22:                                               ; preds = %19
  %23 = getelementptr inbounds nuw i8, ptr %20, i64 80
  %24 = atomicrmw sub ptr %23, i32 1 release, align 4
  %25 = icmp eq i32 %24, 1
  br i1 %25, label %CRYPTO_DOWN_REF.exit.thread.i, label %CRYPTO_DOWN_REF.exit.i

CRYPTO_DOWN_REF.exit.thread.i:                    ; preds = %22
  fence acquire
  br label %27

CRYPTO_DOWN_REF.exit.i:                           ; preds = %22
  %26 = icmp sgt i32 %24, 1
  br i1 %26, label %xor_freekey.exit, label %27

27:                                               ; preds = %CRYPTO_DOWN_REF.exit.i, %CRYPTO_DOWN_REF.exit.thread.i
  %28 = getelementptr inbounds nuw i8, ptr %20, i64 72
  %29 = load ptr, ptr %28, align 8, !tbaa !46
  call void @CRYPTO_free(ptr noundef %29, ptr noundef nonnull @.str.2, i32 noundef 720) #16
  store ptr null, ptr %28, align 8, !tbaa !46
  call void @CRYPTO_free(ptr noundef nonnull %20, ptr noundef nonnull @.str.2, i32 noundef 724) #16
  br label %xor_freekey.exit

xor_freekey.exit:                                 ; preds = %19, %CRYPTO_DOWN_REF.exit.i, %27
  store ptr %16, ptr %0, align 8, !tbaa !49
  br label %30

30:                                               ; preds = %xor_key_from_x509pubkey.exit.thread, %xor_freekey.exit, %xor_key_from_x509pubkey.exit
  %.0.i1119 = phi ptr [ null, %xor_key_from_x509pubkey.exit.thread ], [ %16, %xor_freekey.exit ], [ %16, %xor_key_from_x509pubkey.exit ]
  %.0.i1418 = phi ptr [ %.0.i14.ph, %xor_key_from_x509pubkey.exit.thread ], [ %10, %xor_freekey.exit ], [ %10, %xor_key_from_x509pubkey.exit ]
  call void @X509_PUBKEY_free(ptr noundef %.0.i1418) #16
  ret ptr %.0.i1119
}